; Function Attrs: nounwind uwtable
define internal fastcc range(i32 -1, 1) i32 @verify_bool_return_type_userland_calls(ptr noundef nonnull %0) unnamed_addr #0 {
  %2 = getelementptr inbounds nuw i8, ptr %0, i64 8
  %3 = load i8, ptr %2, align 8, !tbaa !9
  switch i8 %3, label %14 [
    i8 0, label %18
    i8 3, label %.fold.split
    i8 2, label %18
    i8 4, label %4
  ]

4:                                                ; preds = %1
  %5 = load i64, ptr %0, align 8, !tbaa !9
  switch i64 %5, label %14 [
    i64 -1, label %6
    i64 0, label %10
  ]

6:                                                ; preds = %4
  %7 = load ptr, ptr getelementptr inbounds nuw (i8, ptr @executor_globals, i64 960), align 8, !tbaa !63
  %.not11 = icmp eq ptr %7, null
  br i1 %.not11, label %8, label %18

8:                                                ; preds = %6
  %9 = tail call ptr @zend_zval_value_name(ptr noundef nonnull %0) #8
  tail call void (ptr, i32, ptr, ...) @php_error_docref(ptr noundef null, i32 noundef 8192, ptr noundef nonnull @.str.5, ptr noundef %9) #8
  br label %18

10:                                               ; preds = %4
  %11 = load ptr, ptr getelementptr inbounds nuw (i8, ptr @executor_globals, i64 960), align 8, !tbaa !63
  %.not10 = icmp eq ptr %11, null
  br i1 %.not10, label %12, label %18

12:                                               ; preds = %10
  %13 = tail call ptr @zend_zval_value_name(ptr noundef nonnull %0) #8
  tail call void (ptr, i32, ptr, ...) @php_error_docref(ptr noundef null, i32 noundef 8192, ptr noundef nonnull @.str.5, ptr noundef %13) #8
  br label %18

14:                                               ; preds = %4, %1
  %15 = load ptr, ptr getelementptr inbounds nuw (i8, ptr @executor_globals, i64 960), align 8, !tbaa !63
  %.not = icmp eq ptr %15, null
  br i1 %.not, label %16, label %18

16:                                               ; preds = %14
  %17 = tail call ptr @zend_zval_value_name(ptr noundef nonnull %0) #8
  tail call void (ptr, ...) @zend_type_error(ptr noundef nonnull @.str.5, ptr noundef %17) #8
  br label %18

.fold.split:                                      ; preds = %1
  br label %18

18:                                               ; preds = %1, %1, %.fold.split, %14, %16, %10, %12, %6, %8
  %.0 = phi i32 [ -1, %1 ], [ -1, %8 ], [ -1, %6 ], [ 0, %12 ], [ 0, %10 ], [ -1, %16 ], [ -1, %14 ], [ 0, %.fold.split ], [ -1, %1 ]
  ret i32 %.0
}